; Function Attrs: mustprogress nofree norecurse nosync nounwind memory(readwrite, inaccessiblemem: none) uwtable
define hidden void @_ZN3smt9theory_pb15unwatch_literalEN3sat7literalEPNS0_4ineqE(ptr noundef nonnull readonly align 8 captures(none) dereferenceable(968) %0, i32 %1, ptr noundef readnone captures(address) %2) local_unnamed_addr #10 align 2 {
  %4 = lshr i32 %1, 1
  %5 = getelementptr inbounds nuw i8, ptr %0, i64 64
  %6 = load ptr, ptr %5, align 8, !tbaa !700
  %7 = icmp eq ptr %6, null
  br i1 %7, label %_ZN3smt9theory_pb6removeER10ptr_vectorINS0_4ineqEEPS2_.exit, label %_ZNK6vectorIN3smt9theory_pb8var_infoELb0EjE4sizeEv.exit

_ZNK6vectorIN3smt9theory_pb8var_infoELb0EjE4sizeEv.exit: ; preds = %3
  %8 = getelementptr inbounds i8, ptr %6, i64 -4
  %9 = load i32, ptr %8, align 4, !tbaa !9
  %.not = icmp ult i32 %4, %9
  br i1 %.not, label %10, label %_ZN3smt9theory_pb6removeER10ptr_vectorINS0_4ineqEEPS2_.exit

10:                                               ; preds = %_ZNK6vectorIN3smt9theory_pb8var_infoELb0EjE4sizeEv.exit
  %11 = zext nneg i32 %4 to i64
  %12 = getelementptr inbounds nuw %"struct.smt::theory_pb::var_info", ptr %6, i64 %11
  %13 = and i32 %1, 1
  %14 = zext nneg i32 %13 to i64
  %15 = getelementptr inbounds nuw [2 x ptr], ptr %12, i64 0, i64 %14
  %16 = load ptr, ptr %15, align 8, !tbaa !787
  %.not4 = icmp eq ptr %16, null
  br i1 %.not4, label %_ZN3smt9theory_pb6removeER10ptr_vectorINS0_4ineqEEPS2_.exit, label %17

17:                                               ; preds = %10
  %18 = load ptr, ptr %16, align 8, !tbaa !782
  %19 = icmp eq ptr %18, null
  br i1 %19, label %_ZN3smt9theory_pb6removeER10ptr_vectorINS0_4ineqEEPS2_.exit, label %_ZNK6vectorIPN3smt9theory_pb4ineqELb0EjE4sizeEv.exit.i

_ZNK6vectorIPN3smt9theory_pb4ineqELb0EjE4sizeEv.exit.i: ; preds = %17
  %20 = getelementptr inbounds i8, ptr %18, i64 -4
  %21 = load i32, ptr %20, align 4, !tbaa !9
  %.not.i = icmp eq i32 %21, 0
  br i1 %.not.i, label %_ZN3smt9theory_pb6removeER10ptr_vectorINS0_4ineqEEPS2_.exit, label %.lr.ph.preheader.i

.lr.ph.preheader.i:                               ; preds = %_ZNK6vectorIPN3smt9theory_pb4ineqELb0EjE4sizeEv.exit.i
  %wide.trip.count.i = zext i32 %21 to i64
  br label %.lr.ph.i

22:                                               ; preds = %.lr.ph.i
  %indvars.iv.next.i = add nuw nsw i64 %indvars.iv.i, 1
  %exitcond.not.i = icmp eq i64 %indvars.iv.next.i, %wide.trip.count.i
  br i1 %exitcond.not.i, label %_ZN3smt9theory_pb6removeER10ptr_vectorINS0_4ineqEEPS2_.exit, label %.lr.ph.i, !llvm.loop !789

.lr.ph.i:                                         ; preds = %22, %.lr.ph.preheader.i
  %indvars.iv.i = phi i64 [ 0, %.lr.ph.preheader.i ], [ %indvars.iv.next.i, %22 ]
  %23 = getelementptr inbounds nuw ptr, ptr %18, i64 %indvars.iv.i
  %24 = load ptr, ptr %23, align 8, !tbaa !785
  %25 = icmp eq ptr %24, %2
  br i1 %25, label %26, label %22

26:                                               ; preds = %.lr.ph.i
  %27 = getelementptr inbounds nuw ptr, ptr %18, i64 %indvars.iv.i
  %28 = add i32 %21, -1
  %29 = zext i32 %28 to i64
  %30 = getelementptr inbounds nuw ptr, ptr %18, i64 %29
  %31 = load ptr, ptr %30, align 8, !tbaa !785
  store ptr %31, ptr %27, align 8, !tbaa !785
  store ptr %24, ptr %30, align 8, !tbaa !785
  store i32 %28, ptr %20, align 4, !tbaa !9
  br label %_ZN3smt9theory_pb6removeER10ptr_vectorINS0_4ineqEEPS2_.exit

_ZN3smt9theory_pb6removeER10ptr_vectorINS0_4ineqEEPS2_.exit: ; preds = %22, %3, %26, %_ZNK6vectorIPN3smt9theory_pb4ineqELb0EjE4sizeEv.exit.i, %17, %10, %_ZNK6vectorIN3smt9theory_pb8var_infoELb0EjE4sizeEv.exit
  ret void
}